target datalayout = "e-m:e-p270:32:32-p271:32:32-p272:64:64-i64:64-i128:128-f80:128-n8:16:32:64-S128"
target triple = "x86_64-pc-linux-gnu"

%struct.PaAlsaStreamInfo = type { i64, i32, i64, ptr }

; Function Attrs: nounwind uwtable
define void @PaAlsa_InitializeStreamInfo(ptr noundef %0) #0 {
  %2 = alloca ptr, align 8
  store ptr %0, ptr %2, align 8, !tbaa !115
  %3 = load ptr, ptr %2, align 8, !tbaa !115
  %4 = getelementptr inbounds nuw %struct.PaAlsaStreamInfo, ptr %3, i32 0, i32 0
  store i64 32, ptr %4, align 8, !tbaa !117
  %5 = load ptr, ptr %2, align 8, !tbaa !115
  %6 = getelementptr inbounds nuw %struct.PaAlsaStreamInfo, ptr %5, i32 0, i32 1
  store i32 8, ptr %6, align 8, !tbaa !119
  %7 = load ptr, ptr %2, align 8, !tbaa !115
  %8 = getelementptr inbounds nuw %struct.PaAlsaStreamInfo, ptr %7, i32 0, i32 2
  store i64 1, ptr %8, align 8, !tbaa !120
  %9 = load ptr, ptr %2, align 8, !tbaa !115
  %10 = getelementptr inbounds nuw %struct.PaAlsaStreamInfo, ptr %9, i32 0, i32 3
  store ptr null, ptr %10, align 8, !tbaa !121
  ret void
}