; Function Attrs: mustprogress nofree norecurse nosync nounwind willreturn memory(argmem: write) uwtable
define void @PaAlsa_InitializeStreamInfo(ptr noundef writeonly captures(none) initializes((0, 12), (16, 32)) %0) local_unnamed_addr #6 {
  store i64 32, ptr %0, align 8, !tbaa !40
  %2 = getelementptr inbounds nuw i8, ptr %0, i64 8
  store i32 8, ptr %2, align 8, !tbaa !149
  %3 = getelementptr inbounds nuw i8, ptr %0, i64 16
  store i64 1, ptr %3, align 8, !tbaa !42
  %4 = getelementptr inbounds nuw i8, ptr %0, i64 24
  store ptr null, ptr %4, align 8, !tbaa !43
  ret void
}